; Function Attrs: mustprogress nounwind uwtable
define internal void @_ZN4leanL17condvar_finalizerEPv(ptr noundef %0) #5 {
  %2 = icmp eq ptr %0, null
  br i1 %2, label %4, label %3

3:                                                ; preds = %1
  tail call void @_ZNSt18condition_variableD1Ev(ptr noundef nonnull align 8 dereferenceable(48) %0) #11
  tail call void @_ZdlPvm(ptr noundef nonnull %0, i64 noundef 48) #13
  br label %4

4:                                                ; preds = %3, %1
  ret void
}